; Function Attrs: mustprogress nounwind uwtable
define hidden void @_ZN3sat3bcdD2Ev(ptr noundef nonnull align 8 dereferenceable(80) %0) unnamed_addr #4 align 2 personality ptr @__gxx_personality_v0 {
  %2 = load ptr, ptr %0, align 8, !tbaa !8
  %3 = getelementptr inbounds nuw i8, ptr %0, i64 48
  invoke void @_ZN3sat6solver11del_clausesER10ptr_vectorINS_6clauseEE(ptr noundef nonnull align 8 dereferenceable(4264) %2, ptr noundef nonnull align 8 dereferenceable(8) %3)
          to label %.noexc unwind label %78

.noexc:                                           ; preds = %1
  %4 = load ptr, ptr %3, align 8, !tbaa !23
  %.not.i.i = icmp eq ptr %4, null
  br i1 %.not.i.i, label %_ZN6vectorIPN3sat6clauseELb0EjE5resetEv.exit.i, label %5

5:                                                ; preds = %.noexc
  %6 = getelementptr inbounds i8, ptr %4, i64 -4
  store i32 0, ptr %6, align 4, !tbaa !24
  br label %_ZN6vectorIPN3sat6clauseELb0EjE5resetEv.exit.i

_ZN6vectorIPN3sat6clauseELb0EjE5resetEv.exit.i:   ; preds = %5, %.noexc
  %7 = getelementptr inbounds nuw i8, ptr %0, i64 8
  %8 = load ptr, ptr %7, align 8, !tbaa !23
  %.not.i1.i = icmp eq ptr %8, null
  br i1 %.not.i1.i, label %_ZN6vectorIPN3sat6clauseELb0EjE5resetEv.exit2.i, label %9

9:                                                ; preds = %_ZN6vectorIPN3sat6clauseELb0EjE5resetEv.exit.i
  %10 = getelementptr inbounds i8, ptr %8, i64 -4
  store i32 0, ptr %10, align 4, !tbaa !24
  br label %_ZN6vectorIPN3sat6clauseELb0EjE5resetEv.exit2.i

_ZN6vectorIPN3sat6clauseELb0EjE5resetEv.exit2.i:  ; preds = %9, %_ZN6vectorIPN3sat6clauseELb0EjE5resetEv.exit.i
  %11 = getelementptr inbounds nuw i8, ptr %0, i64 16
  %12 = load ptr, ptr %11, align 8, !tbaa !26
  %.not.i3.i = icmp eq ptr %12, null
  br i1 %.not.i3.i, label %_ZN6vectorIN3sat3bcd7bclauseELb0EjE5resetEv.exit.i, label %13

13:                                               ; preds = %_ZN6vectorIPN3sat6clauseELb0EjE5resetEv.exit2.i
  %14 = getelementptr inbounds i8, ptr %12, i64 -4
  store i32 0, ptr %14, align 4, !tbaa !24
  br label %_ZN6vectorIN3sat3bcd7bclauseELb0EjE5resetEv.exit.i

_ZN6vectorIN3sat3bcd7bclauseELb0EjE5resetEv.exit.i: ; preds = %13, %_ZN6vectorIPN3sat6clauseELb0EjE5resetEv.exit2.i
  %15 = getelementptr inbounds nuw i8, ptr %0, i64 24
  %16 = load ptr, ptr %15, align 8, !tbaa !26
  %.not.i4.i = icmp eq ptr %16, null
  br i1 %.not.i4.i, label %_ZN3sat3bcd7cleanupEv.exit, label %17

17:                                               ; preds = %_ZN6vectorIN3sat3bcd7bclauseELb0EjE5resetEv.exit.i
  %18 = getelementptr inbounds i8, ptr %16, i64 -4
  store i32 0, ptr %18, align 4, !tbaa !24
  br label %_ZN3sat3bcd7cleanupEv.exit

_ZN3sat3bcd7cleanupEv.exit:                       ; preds = %17, %_ZN6vectorIN3sat3bcd7bclauseELb0EjE5resetEv.exit.i
  %19 = getelementptr inbounds nuw i8, ptr %0, i64 72
  %20 = load ptr, ptr %19, align 8, !tbaa !27
  %.not.i.i1 = icmp eq ptr %20, null
  br i1 %.not.i.i1, label %_ZN6vectorIbLb0EjED2Ev.exit, label %21

21:                                               ; preds = %_ZN3sat3bcd7cleanupEv.exit
  %22 = getelementptr inbounds i8, ptr %20, i64 -8
  invoke void @_ZN6memory10deallocateEPv(ptr noundef nonnull %22)
          to label %_ZN6vectorIbLb0EjED2Ev.exit unwind label %23

23:                                               ; preds = %21
  %24 = landingpad { ptr, i32 }
          catch ptr null
  %25 = extractvalue { ptr, i32 } %24, 0
  tail call void @__clang_call_terminate(ptr %25) #21
  unreachable

_ZN6vectorIbLb0EjED2Ev.exit:                      ; preds = %_ZN3sat3bcd7cleanupEv.exit, %21
  %26 = getelementptr inbounds nuw i8, ptr %0, i64 64
  %27 = load ptr, ptr %26, align 8, !tbaa !27
  %.not.i.i2 = icmp eq ptr %27, null
  br i1 %.not.i.i2, label %_ZN6vectorIbLb0EjED2Ev.exit3, label %28

28:                                               ; preds = %_ZN6vectorIbLb0EjED2Ev.exit
  %29 = getelementptr inbounds i8, ptr %27, i64 -8
  invoke void @_ZN6memory10deallocateEPv(ptr noundef nonnull %29)
          to label %_ZN6vectorIbLb0EjED2Ev.exit3 unwind label %30

30:                                               ; preds = %28
  %31 = landingpad { ptr, i32 }
          catch ptr null
  %32 = extractvalue { ptr, i32 } %31, 0
  tail call void @__clang_call_terminate(ptr %32) #21
  unreachable

_ZN6vectorIbLb0EjED2Ev.exit3:                     ; preds = %_ZN6vectorIbLb0EjED2Ev.exit, %28
  %33 = getelementptr inbounds nuw i8, ptr %0, i64 56
  %34 = load ptr, ptr %33, align 8, !tbaa !28
  %.not.i.i4 = icmp eq ptr %34, null
  br i1 %.not.i.i4, label %_ZN6vectorImLb0EjED2Ev.exit, label %35

35:                                               ; preds = %_ZN6vectorIbLb0EjED2Ev.exit3
  %36 = getelementptr inbounds i8, ptr %34, i64 -8
  invoke void @_ZN6memory10deallocateEPv(ptr noundef nonnull %36)
          to label %_ZN6vectorImLb0EjED2Ev.exit unwind label %37

37:                                               ; preds = %35
  %38 = landingpad { ptr, i32 }
          catch ptr null
  %39 = extractvalue { ptr, i32 } %38, 0
  tail call void @__clang_call_terminate(ptr %39) #21
  unreachable

_ZN6vectorImLb0EjED2Ev.exit:                      ; preds = %_ZN6vectorIbLb0EjED2Ev.exit3, %35
  %40 = load ptr, ptr %3, align 8, !tbaa !23
  %.not.i.i5 = icmp eq ptr %40, null
  br i1 %.not.i.i5, label %_ZN6vectorIPN3sat6clauseELb0EjED2Ev.exit, label %41

41:                                               ; preds = %_ZN6vectorImLb0EjED2Ev.exit
  %42 = getelementptr inbounds i8, ptr %40, i64 -8
  invoke void @_ZN6memory10deallocateEPv(ptr noundef nonnull %42)
          to label %_ZN6vectorIPN3sat6clauseELb0EjED2Ev.exit unwind label %43

43:                                               ; preds = %41
  %44 = landingpad { ptr, i32 }
          catch ptr null
  %45 = extractvalue { ptr, i32 } %44, 0
  tail call void @__clang_call_terminate(ptr %45) #21
  unreachable

_ZN6vectorIPN3sat6clauseELb0EjED2Ev.exit:         ; preds = %_ZN6vectorImLb0EjED2Ev.exit, %41
  %46 = getelementptr inbounds nuw i8, ptr %0, i64 40
  %47 = load ptr, ptr %46, align 8, !tbaa !26
  %.not.i.i6 = icmp eq ptr %47, null
  br i1 %.not.i.i6, label %_ZN6vectorIN3sat3bcd7bclauseELb0EjED2Ev.exit, label %48

48:                                               ; preds = %_ZN6vectorIPN3sat6clauseELb0EjED2Ev.exit
  %49 = getelementptr inbounds i8, ptr %47, i64 -8
  invoke void @_ZN6memory10deallocateEPv(ptr noundef nonnull %49)
          to label %_ZN6vectorIN3sat3bcd7bclauseELb0EjED2Ev.exit unwind label %50

50:                                               ; preds = %48
  %51 = landingpad { ptr, i32 }
          catch ptr null
  %52 = extractvalue { ptr, i32 } %51, 0
  tail call void @__clang_call_terminate(ptr %52) #21
  unreachable

_ZN6vectorIN3sat3bcd7bclauseELb0EjED2Ev.exit:     ; preds = %_ZN6vectorIPN3sat6clauseELb0EjED2Ev.exit, %48
  %53 = getelementptr inbounds nuw i8, ptr %0, i64 32
  %54 = load ptr, ptr %53, align 8, !tbaa !26
  %.not.i.i7 = icmp eq ptr %54, null
  br i1 %.not.i.i7, label %_ZN6vectorIN3sat3bcd7bclauseELb0EjED2Ev.exit8, label %55

55:                                               ; preds = %_ZN6vectorIN3sat3bcd7bclauseELb0EjED2Ev.exit
  %56 = getelementptr inbounds i8, ptr %54, i64 -8
  invoke void @_ZN6memory10deallocateEPv(ptr noundef nonnull %56)
          to label %_ZN6vectorIN3sat3bcd7bclauseELb0EjED2Ev.exit8 unwind label %57

57:                                               ; preds = %55
  %58 = landingpad { ptr, i32 }
          catch ptr null
  %59 = extractvalue { ptr, i32 } %58, 0
  tail call void @__clang_call_terminate(ptr %59) #21
  unreachable

_ZN6vectorIN3sat3bcd7bclauseELb0EjED2Ev.exit8:    ; preds = %_ZN6vectorIN3sat3bcd7bclauseELb0EjED2Ev.exit, %55
  %60 = load ptr, ptr %15, align 8, !tbaa !26
  %.not.i.i9 = icmp eq ptr %60, null
  br i1 %.not.i.i9, label %_ZN6vectorIN3sat3bcd7bclauseELb0EjED2Ev.exit10, label %61

61:                                               ; preds = %_ZN6vectorIN3sat3bcd7bclauseELb0EjED2Ev.exit8
  %62 = getelementptr inbounds i8, ptr %60, i64 -8
  invoke void @_ZN6memory10deallocateEPv(ptr noundef nonnull %62)
          to label %_ZN6vectorIN3sat3bcd7bclauseELb0EjED2Ev.exit10 unwind label %63

63:                                               ; preds = %61
  %64 = landingpad { ptr, i32 }
          catch ptr null
  %65 = extractvalue { ptr, i32 } %64, 0
  tail call void @__clang_call_terminate(ptr %65) #21
  unreachable

_ZN6vectorIN3sat3bcd7bclauseELb0EjED2Ev.exit10:   ; preds = %_ZN6vectorIN3sat3bcd7bclauseELb0EjED2Ev.exit8, %61
  %66 = load ptr, ptr %11, align 8, !tbaa !26
  %.not.i.i11 = icmp eq ptr %66, null
  br i1 %.not.i.i11, label %_ZN6vectorIN3sat3bcd7bclauseELb0EjED2Ev.exit12, label %67

67:                                               ; preds = %_ZN6vectorIN3sat3bcd7bclauseELb0EjED2Ev.exit10
  %68 = getelementptr inbounds i8, ptr %66, i64 -8
  invoke void @_ZN6memory10deallocateEPv(ptr noundef nonnull %68)
          to label %_ZN6vectorIN3sat3bcd7bclauseELb0EjED2Ev.exit12 unwind label %69

69:                                               ; preds = %67
  %70 = landingpad { ptr, i32 }
          catch ptr null
  %71 = extractvalue { ptr, i32 } %70, 0
  tail call void @__clang_call_terminate(ptr %71) #21
  unreachable

_ZN6vectorIN3sat3bcd7bclauseELb0EjED2Ev.exit12:   ; preds = %_ZN6vectorIN3sat3bcd7bclauseELb0EjED2Ev.exit10, %67
  %72 = load ptr, ptr %7, align 8, !tbaa !23
  %.not.i.i13 = icmp eq ptr %72, null
  br i1 %.not.i.i13, label %_ZN6vectorIPN3sat6clauseELb0EjED2Ev.exit14, label %73

73:                                               ; preds = %_ZN6vectorIN3sat3bcd7bclauseELb0EjED2Ev.exit12
  %74 = getelementptr inbounds i8, ptr %72, i64 -8
  invoke void @_ZN6memory10deallocateEPv(ptr noundef nonnull %74)
          to label %_ZN6vectorIPN3sat6clauseELb0EjED2Ev.exit14 unwind label %75

75:                                               ; preds = %73
  %76 = landingpad { ptr, i32 }
          catch ptr null
  %77 = extractvalue { ptr, i32 } %76, 0
  tail call void @__clang_call_terminate(ptr %77) #21
  unreachable

_ZN6vectorIPN3sat6clauseELb0EjED2Ev.exit14:       ; preds = %_ZN6vectorIN3sat3bcd7bclauseELb0EjED2Ev.exit12, %73
  ret void

78:                                               ; preds = %1
  %79 = landingpad { ptr, i32 }
          catch ptr null
  %80 = extractvalue { ptr, i32 } %79, 0
  tail call void @__clang_call_terminate(ptr %80) #21
  unreachable
}